target datalayout = "e-m:e-p270:32:32-p271:32:32-p272:64:64-i64:64-i128:128-f80:128-n8:16:32:64-S128"
target triple = "x86_64-unknown-linux-gnu"

; Function Attrs: mustprogress uwtable
define void @_ZN8QuantLib27SwaptionVolatilityStructureC2ENS_21BusinessDayConventionERKNS_10DayCounterE(ptr noundef nonnull align 8 dereferenceable(68) %this, ptr noundef %vtt, i32 noundef %bdc, ptr noundef nonnull align 8 dereferenceable(16) %dc) unnamed_addr #4 align 2 {
entry:
  %this.addr = alloca ptr, align 8
  %vtt.addr = alloca ptr, align 8
  %bdc.addr = alloca i32, align 4
  %dc.addr = alloca ptr, align 8
  store ptr %this, ptr %this.addr, align 8, !tbaa !3
  store ptr %vtt, ptr %vtt.addr, align 8, !tbaa !3
  store i32 %bdc, ptr %bdc.addr, align 4, !tbaa !9
  store ptr %dc, ptr %dc.addr, align 8, !tbaa !3
  %this1 = load ptr, ptr %this.addr, align 8
  %vtt2 = load ptr, ptr %vtt.addr, align 8
  %0 = load i32, ptr %bdc.addr, align 4, !tbaa !9
  %1 = load ptr, ptr %dc.addr, align 8, !tbaa !3
  %2 = getelementptr inbounds ptr, ptr %vtt2, i64 1
  call void @_ZN8QuantLib23VolatilityTermStructureC2ENS_21BusinessDayConventionERKNS_10DayCounterE(ptr noundef nonnull align 8 dereferenceable(68) %this1, ptr noundef %2, i32 noundef %0, ptr noundef nonnull align 8 dereferenceable(16) %1)
  %3 = load ptr, ptr %vtt2, align 8
  store ptr %3, ptr %this1, align 8, !tbaa !11
  %4 = getelementptr inbounds ptr, ptr %vtt2, i64 7
  %5 = load ptr, ptr %4, align 8
  %vtable = load ptr, ptr %this1, align 8, !tbaa !11
  %vbase.offset.ptr = getelementptr i8, ptr %vtable, i64 -24
  %vbase.offset = load i64, ptr %vbase.offset.ptr, align 8
  %add.ptr = getelementptr inbounds i8, ptr %this1, i64 %vbase.offset
  store ptr %5, ptr %add.ptr, align 8, !tbaa !11
  %6 = getelementptr inbounds ptr, ptr %vtt2, i64 8
  %7 = load ptr, ptr %6, align 8
  %vtable3 = load ptr, ptr %this1, align 8, !tbaa !11
  %vbase.offset.ptr4 = getelementptr i8, ptr %vtable3, i64 -32
  %vbase.offset5 = load i64, ptr %vbase.offset.ptr4, align 8
  %add.ptr6 = getelementptr inbounds i8, ptr %this1, i64 %vbase.offset5
  store ptr %7, ptr %add.ptr6, align 8, !tbaa !11
  ret void
}